target datalayout = "e-m:e-p270:32:32-p271:32:32-p272:64:64-i64:64-i128:128-f80:128-n8:16:32:64-S128"
target triple = "x86_64-pc-linux-gnu"

%"class.nanobind::handle" = type { ptr }
%class.anon.496 = type { i8 }
%"struct.nanobind::detail::tuple.498" = type { %"struct.nanobind::detail::type_caster.499" }
%"struct.nanobind::detail::type_caster.499" = type { i32 }
%struct.Pet = type { i32 }

@_ZTI3Pet = linkonce_odr hidden constant { ptr, ptr } { ptr getelementptr inbounds (ptr, ptr @_ZTVN10__cxxabiv117__class_type_infoE, i64 2), ptr @_ZTS3Pet }, comdat, align 8
@_ZTI3Dog = linkonce_odr hidden constant { ptr, ptr, ptr } { ptr getelementptr inbounds (ptr, ptr @_ZTVN10__cxxabiv120__si_class_type_infoE, i64 2), ptr @_ZTS3Dog, ptr @_ZTI3Pet }, comdat, align 8
@_ZTI3Cat = linkonce_odr hidden constant { ptr, ptr, ptr } { ptr getelementptr inbounds (ptr, ptr @_ZTVN10__cxxabiv120__si_class_type_infoE, i64 2), ptr @_ZTS3Cat, ptr @_ZTI3Pet }, comdat, align 8
@_ZTI7PetKind = linkonce_odr hidden constant { ptr, ptr } { ptr getelementptr inbounds (ptr, ptr @_ZTVN10__cxxabiv116__enum_type_infoE, i64 2), ptr @_ZTS7PetKind }, comdat, align 8
@.str.60 = private unnamed_addr constant [15 x i8] c"Internal error\00", align 1
@_ZTISt13runtime_error = external constant ptr

; Function Attrs: noinline noreturn nounwind optsize uwtable
define linkonce_odr hidden void @__clang_call_terminate(ptr noundef %0) #7 comdat {
  %2 = call ptr @__cxa_begin_catch(ptr %0) #20
  call void @_ZSt9terminatev() #22
  unreachable
}

; Function Attrs: mustprogress nounwind optsize uwtable
define linkonce_odr hidden noundef ptr @_ZN8nanobind6detail9type_hookI3PetiE3getEPS2_(ptr noundef %0) #8 comdat align 2 {
  %2 = alloca ptr, align 8
  %3 = alloca ptr, align 8
  store ptr %0, ptr %3, align 8, !tbaa !930
  %4 = load ptr, ptr %3, align 8, !tbaa !930
  %5 = icmp ne ptr %4, null
  br i1 %5, label %6, label %13

6:                                                ; preds = %1
  %7 = load ptr, ptr %3, align 8, !tbaa !930
  %8 = getelementptr inbounds nuw %struct.Pet, ptr %7, i32 0, i32 0
  %9 = load i32, ptr %8, align 4, !tbaa !940
  switch i32 %9, label %12 [
    i32 1, label %10
    i32 0, label %11
  ]

10:                                               ; preds = %6
  store ptr @_ZTI3Dog, ptr %2, align 8
  br label %14

11:                                               ; preds = %6
  store ptr @_ZTI3Cat, ptr %2, align 8
  br label %14

12:                                               ; preds = %6
  br label %13

13:                                               ; preds = %12, %1
  store ptr @_ZTI3Pet, ptr %2, align 8
  br label %14

14:                                               ; preds = %13, %11, %10
  %15 = load ptr, ptr %2, align 8
  ret ptr %15
}

; Function Attrs: alwaysinline mustprogress nounwind optsize uwtable
define linkonce_odr hidden noundef i32 @_ZN8nanobind6detail12infer_policyIP3PetEENS_9rv_policyES4_(i32 noundef %0) #5 comdat {
  %2 = alloca i32, align 4
  store i32 %0, ptr %2, align 4, !tbaa !20
  %3 = load i32, ptr %2, align 4, !tbaa !20
  %4 = icmp eq i32 %3, 0
  br i1 %4, label %5, label %6

5:                                                ; preds = %1
  store i32 2, ptr %2, align 4, !tbaa !20
  br label %11

6:                                                ; preds = %1
  %7 = load i32, ptr %2, align 4, !tbaa !20
  %8 = icmp eq i32 %7, 1
  br i1 %8, label %9, label %10

9:                                                ; preds = %6
  store i32 5, ptr %2, align 4, !tbaa !20
  br label %10

10:                                               ; preds = %9, %6
  br label %11

11:                                               ; preds = %10, %5
  %12 = load i32, ptr %2, align 4, !tbaa !20
  ret i32 %12
}

; Function Attrs: mustprogress nounwind optsize uwtable
define linkonce_odr hidden void @_ZN3CatC2Ev(ptr noundef nonnull align 4 dereferenceable(4) %0) unnamed_addr #8 comdat align 2 {
  %2 = alloca ptr, align 8
  store ptr %0, ptr %2, align 8, !tbaa !944
  %3 = load ptr, ptr %2, align 8
  %4 = getelementptr inbounds nuw %struct.Pet, ptr %3, i32 0, i32 0
  store i32 0, ptr %4, align 4, !tbaa !940
  ret void
}

; Function Attrs: mustprogress nounwind optsize uwtable
define linkonce_odr hidden void @_ZN3DogC2Ev(ptr noundef nonnull align 4 dereferenceable(4) %0) unnamed_addr #8 comdat align 2 {
  %2 = alloca ptr, align 8
  store ptr %0, ptr %2, align 8, !tbaa !942
  %3 = load ptr, ptr %2, align 8
  %4 = getelementptr inbounds nuw %struct.Pet, ptr %3, i32 0, i32 0
  store i32 1, ptr %4, align 4, !tbaa !940
  ret void
}

; Function Attrs: alwaysinline mustprogress nounwind optsize uwtable
define linkonce_odr hidden noundef ptr @_ZNK8nanobind6handle3ptrEv(ptr noundef nonnull align 8 dereferenceable(8) %0) #5 comdat align 2 {
  %2 = alloca ptr, align 8
  store ptr %0, ptr %2, align 8, !tbaa !12
  %3 = load ptr, ptr %2, align 8
  %4 = getelementptr inbounds nuw %"class.nanobind::handle", ptr %3, i32 0, i32 0
  %5 = load ptr, ptr %4, align 8, !tbaa !14
  ret ptr %5
}

; Function Attrs: alwaysinline mustprogress nounwind optsize uwtable
define linkonce_odr hidden ptr @_ZN8nanobind6detail16type_caster_baseI3PetE8from_cppIPS2_EENS_6handleEOT_NS_9rv_policyEPNS0_12cleanup_listE(ptr noundef nonnull align 8 dereferenceable(8) %0, i32 noundef %1, ptr noundef %2) #5 comdat align 2 personality ptr @__gxx_personality_v0 {
  %4 = alloca %"class.nanobind::handle", align 8
  %5 = alloca ptr, align 8
  %6 = alloca i32, align 4
  %7 = alloca ptr, align 8
  %8 = alloca ptr, align 8
  %9 = alloca ptr, align 8
  %10 = alloca i8, align 1
  store ptr %0, ptr %5, align 8, !tbaa !938
  store i32 %1, ptr %6, align 4, !tbaa !20
  store ptr %2, ptr %7, align 8, !tbaa !190
  call void @llvm.lifetime.start.p0(i64 8, ptr %8) #20
  %11 = load ptr, ptr %5, align 8, !tbaa !938
  %12 = load ptr, ptr %11, align 8, !tbaa !930
  store ptr %12, ptr %8, align 8, !tbaa !930
  %13 = load i32, ptr %6, align 4, !tbaa !20
  %14 = invoke noundef i32 @_ZN8nanobind6detail12infer_policyIP3PetEENS_9rv_policyES4_(i32 noundef %13) #19
          to label %15 unwind label %27

15:                                               ; preds = %3
  store i32 %14, ptr %6, align 4, !tbaa !20
  call void @llvm.lifetime.start.p0(i64 8, ptr %9) #20
  store ptr @_ZTI3Pet, ptr %9, align 8, !tbaa !181
  call void @llvm.lifetime.start.p0(i64 1, ptr %10) #20
  store i8 1, ptr %10, align 1, !tbaa !24
  %16 = load ptr, ptr %8, align 8, !tbaa !930
  %17 = invoke noundef ptr @_ZN8nanobind6detail9type_hookI3PetiE3getEPS2_(ptr noundef %16) #19
          to label %18 unwind label %27

18:                                               ; preds = %15
  store ptr %17, ptr %9, align 8, !tbaa !181
  %19 = load ptr, ptr %9, align 8, !tbaa !181
  %20 = load ptr, ptr %8, align 8, !tbaa !930
  %21 = load i32, ptr %6, align 4, !tbaa !20
  %22 = load ptr, ptr %7, align 8, !tbaa !190
  %23 = call noundef ptr @_ZN8nanobind6detail11nb_type_putEPKSt9type_infoPvNS_9rv_policyEPNS0_12cleanup_listEPb(ptr noundef %19, ptr noundef %20, i32 noundef %21, ptr noundef %22, ptr noundef null) #21
  invoke void @_ZN8nanobind6handleC2EPK7_object(ptr noundef nonnull align 8 dereferenceable(8) %4, ptr noundef %23) #19
          to label %24 unwind label %27

24:                                               ; preds = %18
  call void @llvm.lifetime.end.p0(i64 1, ptr %10) #20
  call void @llvm.lifetime.end.p0(i64 8, ptr %9) #20
  call void @llvm.lifetime.end.p0(i64 8, ptr %8) #20
  %25 = getelementptr inbounds nuw %"class.nanobind::handle", ptr %4, i32 0, i32 0
  %26 = load ptr, ptr %25, align 8
  ret ptr %26

27:                                               ; preds = %18, %15, %3
  %28 = landingpad { ptr, i32 }
          catch ptr null
  %29 = extractvalue { ptr, i32 } %28, 0
  call void @__clang_call_terminate(ptr %29) #22
  unreachable
}

; Function Attrs: inlinehint mustprogress optsize uwtable
define internal noundef ptr @"_ZZL30nanobind_init_test_holders_extRN8nanobind7module_EENK4$_37clE7PetKind"(ptr noundef nonnull align 1 dereferenceable(1) %0, i32 noundef %1) #9 align 2 personality ptr @__gxx_personality_v0 {
  %3 = alloca ptr, align 8
  %4 = alloca ptr, align 8
  %5 = alloca i32, align 4
  %6 = alloca ptr, align 8
  %7 = alloca i32, align 4
  store ptr %0, ptr %4, align 8, !tbaa !18
  store i32 %1, ptr %5, align 4, !tbaa !137
  %8 = load i32, ptr %5, align 4, !tbaa !137
  switch i32 %8, label %23 [
    i32 1, label %9
    i32 0, label %16
  ]

9:                                                ; preds = %2
  %10 = call noalias noundef nonnull ptr @_Znwm(i64 noundef 4) #23
  invoke void @_ZN3DogC2Ev(ptr noundef nonnull align 4 dereferenceable(4) %10) #19
          to label %11 unwind label %12

11:                                               ; preds = %9
  store ptr %10, ptr %3, align 8
  br label %30

12:                                               ; preds = %9
  %13 = landingpad { ptr, i32 }
          cleanup
  %14 = extractvalue { ptr, i32 } %13, 0
  store ptr %14, ptr %6, align 8
  %15 = extractvalue { ptr, i32 } %13, 1
  store i32 %15, ptr %7, align 4
  call void @_ZdlPvm(ptr noundef %10, i64 noundef 4) #24
  br label %32

16:                                               ; preds = %2
  %17 = call noalias noundef nonnull ptr @_Znwm(i64 noundef 4) #23
  invoke void @_ZN3CatC2Ev(ptr noundef nonnull align 4 dereferenceable(4) %17) #19
          to label %18 unwind label %19

18:                                               ; preds = %16
  store ptr %17, ptr %3, align 8
  br label %30

19:                                               ; preds = %16
  %20 = landingpad { ptr, i32 }
          cleanup
  %21 = extractvalue { ptr, i32 } %20, 0
  store ptr %21, ptr %6, align 8
  %22 = extractvalue { ptr, i32 } %20, 1
  store i32 %22, ptr %7, align 4
  call void @_ZdlPvm(ptr noundef %17, i64 noundef 4) #24
  br label %32

23:                                               ; preds = %2
  %24 = call ptr @__cxa_allocate_exception(i64 16) #20
  invoke void @_ZNSt13runtime_errorC1EPKc(ptr noundef nonnull align 8 dereferenceable(16) %24, ptr noundef @.str.60) #19
          to label %25 unwind label %26

25:                                               ; preds = %23
  call void @__cxa_throw(ptr %24, ptr @_ZTISt13runtime_error, ptr @_ZNSt13runtime_errorD1Ev) #26
  unreachable

26:                                               ; preds = %23
  %27 = landingpad { ptr, i32 }
          cleanup
  %28 = extractvalue { ptr, i32 } %27, 0
  store ptr %28, ptr %6, align 8
  %29 = extractvalue { ptr, i32 } %27, 1
  store i32 %29, ptr %7, align 4
  call void @__cxa_free_exception(ptr %24) #20
  br label %32

30:                                               ; preds = %18, %11
  %31 = load ptr, ptr %3, align 8
  ret ptr %31

32:                                               ; preds = %26, %19, %12
  %33 = load ptr, ptr %6, align 8
  %34 = load i32, ptr %7, align 4
  %35 = insertvalue { ptr, i32 } poison, ptr %33, 0
  %36 = insertvalue { ptr, i32 } %35, i32 %34, 1
  resume { ptr, i32 } %36
}

; Function Attrs: mustprogress nounwind optsize uwtable
define linkonce_odr hidden noundef nonnull align 4 dereferenceable(4) ptr @_ZN8nanobind6detail11type_casterI7PetKindiEcvOS2_Ev(ptr noundef nonnull align 4 dereferenceable(4) %0) #8 comdat align 2 {
  %2 = alloca ptr, align 8
  store ptr %0, ptr %2, align 8, !tbaa !934
  %3 = load ptr, ptr %2, align 8
  %4 = getelementptr inbounds nuw %"struct.nanobind::detail::type_caster.499", ptr %3, i32 0, i32 0
  ret ptr %4
}

; Function Attrs: alwaysinline mustprogress nounwind optsize uwtable
define linkonce_odr hidden noundef zeroext i1 @_ZN8nanobind6detail11type_casterI7PetKindiE11from_pythonENS_6handleEhPNS0_12cleanup_listE(ptr noundef nonnull align 4 dereferenceable(4) %0, ptr %1, i8 noundef zeroext %2, ptr noundef %3) #5 comdat align 2 {
  %5 = alloca %"class.nanobind::handle", align 8
  %6 = alloca ptr, align 8
  %7 = alloca i8, align 1
  %8 = alloca ptr, align 8
  %9 = alloca i64, align 8
  %10 = alloca i8, align 1
  %11 = getelementptr inbounds nuw %"class.nanobind::handle", ptr %5, i32 0, i32 0
  store ptr %1, ptr %11, align 8
  store ptr %0, ptr %6, align 8, !tbaa !934
  store i8 %2, ptr %7, align 1, !tbaa !19
  store ptr %3, ptr %8, align 8, !tbaa !190
  %12 = load ptr, ptr %6, align 8
  call void @llvm.lifetime.start.p0(i64 8, ptr %9) #20
  call void @llvm.lifetime.start.p0(i64 1, ptr %10) #20
  %13 = call noundef ptr @_ZNK8nanobind6handle3ptrEv(ptr noundef nonnull align 8 dereferenceable(8) %5) #19
  %14 = load i8, ptr %7, align 1, !tbaa !19
  %15 = call noundef zeroext i1 @_ZN8nanobind6detail16enum_from_pythonEPKSt9type_infoP7_objectPlh(ptr noundef @_ZTI7PetKind, ptr noundef %13, ptr noundef %9, i8 noundef zeroext %14) #21
  %16 = zext i1 %15 to i8
  store i8 %16, ptr %10, align 1, !tbaa !24
  %17 = load i64, ptr %9, align 8, !tbaa !166
  %18 = trunc i64 %17 to i32
  %19 = getelementptr inbounds nuw %"struct.nanobind::detail::type_caster.499", ptr %12, i32 0, i32 0
  store i32 %18, ptr %19, align 4, !tbaa !936
  %20 = load i8, ptr %10, align 1, !tbaa !24, !range !112, !noundef !113
  %21 = trunc i8 %20 to i1
  call void @llvm.lifetime.end.p0(i64 1, ptr %10) #20
  call void @llvm.lifetime.end.p0(i64 8, ptr %9) #20
  ret i1 %21
}

; Function Attrs: alwaysinline mustprogress nounwind optsize uwtable
define linkonce_odr hidden void @_ZN8nanobind6handleC2EPK7_object(ptr noundef nonnull align 8 dereferenceable(8) %0, ptr noundef %1) unnamed_addr #5 comdat align 2 {
  %3 = alloca ptr, align 8
  %4 = alloca ptr, align 8
  store ptr %0, ptr %3, align 8, !tbaa !12
  store ptr %1, ptr %4, align 8, !tbaa !3
  %5 = load ptr, ptr %3, align 8
  %6 = getelementptr inbounds nuw %"class.nanobind::handle", ptr %5, i32 0, i32 0
  %7 = load ptr, ptr %4, align 8, !tbaa !3
  store ptr %7, ptr %6, align 8, !tbaa !14
  ret void
}

; Function Attrs: alwaysinline mustprogress nounwind optsize uwtable
define linkonce_odr hidden noundef nonnull align 4 dereferenceable(4) ptr @_ZN8nanobind6detail5tupleIJNS0_11type_casterI7PetKindiEEEE3getILm0EEERDav(ptr noundef nonnull align 4 dereferenceable(4) %0) #5 comdat align 2 {
  %2 = alloca ptr, align 8
  store ptr %0, ptr %2, align 8, !tbaa !932
  %3 = load ptr, ptr %2, align 8
  %4 = getelementptr inbounds nuw %"struct.nanobind::detail::tuple.498", ptr %3, i32 0, i32 0
  ret ptr %4
}

; Function Attrs: alwaysinline mustprogress optsize uwtable
define internal noundef ptr @"_ZZN8nanobind6detail11func_createILb0ELb1EZL30nanobind_init_test_holders_extRNS_7module_EE4$_37P3PetJ7PetKindEJLm0EEJNS_5scopeENS_4nameEEEEP7_objectOT1_PFT2_DpT3_ESt16integer_sequenceImJXspT4_EEEDpRKT5_ENKUlPvPSB_PhNS_9rv_policyEPNS0_12cleanup_listEE_clESP_SQ_SR_SS_SU_"(ptr noundef nonnull align 1 dereferenceable(1) %0, ptr noundef %1, ptr noundef %2, ptr noundef %3, i32 noundef %4, ptr noundef %5) #3 align 2 {
  %7 = alloca ptr, align 8
  %8 = alloca ptr, align 8
  %9 = alloca ptr, align 8
  %10 = alloca ptr, align 8
  %11 = alloca ptr, align 8
  %12 = alloca i32, align 4
  %13 = alloca ptr, align 8
  %14 = alloca ptr, align 8
  %15 = alloca %"struct.nanobind::detail::tuple.498", align 4
  %16 = alloca %"class.nanobind::handle", align 8
  %17 = alloca i32, align 4
  %18 = alloca ptr, align 8
  %19 = alloca %"class.nanobind::handle", align 8
  %20 = alloca ptr, align 8
  store ptr %0, ptr %8, align 8, !tbaa !18
  store ptr %1, ptr %9, align 8, !tbaa !18
  store ptr %2, ptr %10, align 8, !tbaa !188
  store ptr %3, ptr %11, align 8, !tbaa !34
  store i32 %4, ptr %12, align 4, !tbaa !20
  store ptr %5, ptr %13, align 8, !tbaa !190
  call void @llvm.lifetime.start.p0(i64 8, ptr %14) #20
  %21 = load ptr, ptr %9, align 8, !tbaa !18
  store ptr %21, ptr %14, align 8, !tbaa !926
  call void @llvm.lifetime.start.p0(i64 4, ptr %15) #20
  %22 = call noundef nonnull align 4 dereferenceable(4) ptr @_ZN8nanobind6detail5tupleIJNS0_11type_casterI7PetKindiEEEE3getILm0EEERDav(ptr noundef nonnull align 4 dereferenceable(4) %15) #19
  %23 = load ptr, ptr %10, align 8, !tbaa !188
  %24 = getelementptr inbounds nuw ptr, ptr %23, i64 0
  %25 = load ptr, ptr %24, align 8, !tbaa !3
  call void @_ZN8nanobind6handleC2EPK7_object(ptr noundef nonnull align 8 dereferenceable(8) %16, ptr noundef %25) #19
  %26 = load ptr, ptr %11, align 8, !tbaa !34
  %27 = getelementptr inbounds nuw i8, ptr %26, i64 0
  %28 = load i8, ptr %27, align 1, !tbaa !19
  %29 = load ptr, ptr %13, align 8, !tbaa !190
  %30 = getelementptr inbounds nuw %"class.nanobind::handle", ptr %16, i32 0, i32 0
  %31 = load ptr, ptr %30, align 8
  %32 = call noundef zeroext i1 @_ZN8nanobind6detail11type_casterI7PetKindiE11from_pythonENS_6handleEhPNS0_12cleanup_listE(ptr noundef nonnull align 4 dereferenceable(4) %22, ptr %31, i8 noundef zeroext %28, ptr noundef %29) #21
  br i1 %32, label %34, label %33

33:                                               ; preds = %6
  store ptr inttoptr (i64 1 to ptr), ptr %7, align 8
  store i32 1, ptr %17, align 4
  br label %46

34:                                               ; preds = %6
  call void @llvm.lifetime.start.p0(i64 8, ptr %18) #20
  call void @llvm.lifetime.start.p0(i64 8, ptr %19) #20
  call void @llvm.lifetime.start.p0(i64 8, ptr %20) #20
  %35 = load ptr, ptr %14, align 8, !tbaa !926
  %36 = call noundef nonnull align 4 dereferenceable(4) ptr @_ZN8nanobind6detail5tupleIJNS0_11type_casterI7PetKindiEEEE3getILm0EEERDav(ptr noundef nonnull align 4 dereferenceable(4) %15) #19
  %37 = call noundef nonnull align 4 dereferenceable(4) ptr @_ZN8nanobind6detail11type_casterI7PetKindiEcvOS2_Ev(ptr noundef nonnull align 4 dereferenceable(4) %36) #19
  %38 = load i32, ptr %37, align 4, !tbaa !137
  %39 = call noundef ptr @"_ZZL30nanobind_init_test_holders_extRN8nanobind7module_EENK4$_37clE7PetKind"(ptr noundef nonnull align 1 dereferenceable(1) %35, i32 noundef %38) #19
  store ptr %39, ptr %20, align 8, !tbaa !930
  %40 = load i32, ptr %12, align 4, !tbaa !20
  %41 = load ptr, ptr %13, align 8, !tbaa !190
  %42 = call ptr @_ZN8nanobind6detail16type_caster_baseI3PetE8from_cppIPS2_EENS_6handleEOT_NS_9rv_policyEPNS0_12cleanup_listE(ptr noundef nonnull align 8 dereferenceable(8) %20, i32 noundef %40, ptr noundef %41) #21
  %43 = getelementptr inbounds nuw %"class.nanobind::handle", ptr %19, i32 0, i32 0
  store ptr %42, ptr %43, align 8
  %44 = call noundef ptr @_ZNK8nanobind6handle3ptrEv(ptr noundef nonnull align 8 dereferenceable(8) %19) #19
  store ptr %44, ptr %18, align 8, !tbaa !3
  call void @llvm.lifetime.end.p0(i64 8, ptr %20) #20
  call void @llvm.lifetime.end.p0(i64 8, ptr %19) #20
  %45 = load ptr, ptr %18, align 8, !tbaa !3
  store ptr %45, ptr %7, align 8
  store i32 1, ptr %17, align 4
  call void @llvm.lifetime.end.p0(i64 8, ptr %18) #20
  br label %46

46:                                               ; preds = %34, %33
  call void @llvm.lifetime.end.p0(i64 4, ptr %15) #20
  call void @llvm.lifetime.end.p0(i64 8, ptr %14) #20
  %47 = load ptr, ptr %7, align 8
  ret ptr %47
}

; Function Attrs: inlinehint mustprogress optsize uwtable
define internal noundef ptr @"_ZZN8nanobind6detail11func_createILb0ELb1EZL30nanobind_init_test_holders_extRNS_7module_EE4$_37P3PetJ7PetKindEJLm0EEJNS_5scopeENS_4nameEEEEP7_objectOT1_PFT2_DpT3_ESt16integer_sequenceImJXspT4_EEEDpRKT5_ENUlPvPSB_PhNS_9rv_policyEPNS0_12cleanup_listEE_8__invokeESP_SQ_SR_SS_SU_"(ptr noundef %0, ptr noundef %1, ptr noundef %2, i32 noundef %3, ptr noundef %4) #9 align 2 {
  %6 = alloca ptr, align 8
  %7 = alloca ptr, align 8
  %8 = alloca ptr, align 8
  %9 = alloca i32, align 4
  %10 = alloca ptr, align 8
  %11 = alloca %class.anon.496, align 1
  store ptr %0, ptr %6, align 8, !tbaa !18
  store ptr %1, ptr %7, align 8, !tbaa !188
  store ptr %2, ptr %8, align 8, !tbaa !34
  store i32 %3, ptr %9, align 4, !tbaa !20
  store ptr %4, ptr %10, align 8, !tbaa !190
  %12 = load ptr, ptr %6, align 8, !tbaa !18
  %13 = load ptr, ptr %7, align 8, !tbaa !188
  %14 = load ptr, ptr %8, align 8, !tbaa !34
  %15 = load i32, ptr %9, align 4, !tbaa !20
  %16 = load ptr, ptr %10, align 8, !tbaa !190
  %17 = call noundef ptr @"_ZZN8nanobind6detail11func_createILb0ELb1EZL30nanobind_init_test_holders_extRNS_7module_EE4$_37P3PetJ7PetKindEJLm0EEJNS_5scopeENS_4nameEEEEP7_objectOT1_PFT2_DpT3_ESt16integer_sequenceImJXspT4_EEEDpRKT5_ENKUlPvPSB_PhNS_9rv_policyEPNS0_12cleanup_listEE_clESP_SQ_SR_SS_SU_"(ptr noundef nonnull align 1 dereferenceable(1) %11, ptr noundef %12, ptr noundef %13, ptr noundef %14, i32 noundef %15, ptr noundef %16) #19
  ret ptr %17
}