; Function Attrs: inlinehint mustprogress optsize uwtable
define internal noundef ptr @"_ZZN8nanobind6detail11func_createILb0ELb1EZL30nanobind_init_test_holders_extRNS_7module_EE4$_37P3PetJ7PetKindEJLm0EEJNS_5scopeENS_4nameEEEEP7_objectOT1_PFT2_DpT3_ESt16integer_sequenceImJXspT4_EEEDpRKT5_ENUlPvPSB_PhNS_9rv_policyEPNS0_12cleanup_listEE_8__invokeESP_SQ_SR_SS_SU_"(ptr readnone captures(none) %0, ptr noundef readonly captures(none) %1, ptr noundef readonly captures(none) %2, i32 noundef %3, ptr noundef %4) #8 align 2 personality ptr @__gxx_personality_v0 {
  %6 = alloca i64, align 8
  %7 = load ptr, ptr %1, align 8, !tbaa !115
  %8 = load i8, ptr %2, align 1, !tbaa !37
  call void @llvm.lifetime.start.p0(i64 8, ptr nonnull %6) #26
  %9 = call noundef zeroext i1 @_ZN8nanobind6detail16enum_from_pythonEPKSt9type_infoP7_objectPlh(ptr noundef nonnull @_ZTI7PetKind, ptr noundef %7, ptr noundef nonnull %6, i8 noundef zeroext %8) #27
  %10 = load i64, ptr %6, align 8, !tbaa !347
  %11 = trunc i64 %10 to i32
  call void @llvm.lifetime.end.p0(i64 8, ptr nonnull %6) #26
  br i1 %9, label %12, label %"_ZZN8nanobind6detail11func_createILb0ELb1EZL30nanobind_init_test_holders_extRNS_7module_EE4$_37P3PetJ7PetKindEJLm0EEJNS_5scopeENS_4nameEEEEP7_objectOT1_PFT2_DpT3_ESt16integer_sequenceImJXspT4_EEEDpRKT5_ENKUlPvPSB_PhNS_9rv_policyEPNS0_12cleanup_listEE_clESP_SQ_SR_SS_SU_.exit"

12:                                               ; preds = %5
  %switch = icmp ult i32 %11, 2
  br i1 %switch, label %_ZN8nanobind6detail9type_hookI3PetiE3getEPS2_.exit, label %13

13:                                               ; preds = %12
  %14 = call ptr @__cxa_allocate_exception(i64 16) #26
  invoke void @_ZNSt13runtime_errorC1EPKc(ptr noundef nonnull align 8 dereferenceable(16) %14, ptr noundef nonnull @.str.60) #25
          to label %15 unwind label %16

15:                                               ; preds = %13
  call void @__cxa_throw(ptr nonnull %14, ptr nonnull @_ZTISt13runtime_error, ptr nonnull @_ZNSt13runtime_errorD1Ev) #31
  unreachable

16:                                               ; preds = %13
  %17 = landingpad { ptr, i32 }
          cleanup
  call void @__cxa_free_exception(ptr nonnull %14) #26
  resume { ptr, i32 } %17

_ZN8nanobind6detail9type_hookI3PetiE3getEPS2_.exit: ; preds = %12
  %18 = call noalias noundef nonnull dereferenceable(4) ptr @_Znwm(i64 noundef 4) #29
  store i32 %11, ptr %18, align 4, !tbaa !427
  %19 = icmp eq i32 %3, 0
  %20 = icmp eq i32 %3, 1
  %spec.store.select.i = select i1 %20, i32 5, i32 %3
  %.0.i4 = select i1 %19, i32 2, i32 %spec.store.select.i
  %switch.selectcmp.i = icmp eq i32 %11, 0
  %switch.select.i = select i1 %switch.selectcmp.i, ptr @_ZTI3Cat, ptr @_ZTI3Pet
  %switch.selectcmp4.i = icmp eq i32 %11, 1
  %switch.select5.i = select i1 %switch.selectcmp4.i, ptr @_ZTI3Dog, ptr %switch.select.i
  %21 = call noundef ptr @_ZN8nanobind6detail11nb_type_putEPKSt9type_infoPvNS_9rv_policyEPNS0_12cleanup_listEPb(ptr noundef nonnull %switch.select5.i, ptr noundef nonnull %18, i32 noundef %.0.i4, ptr noundef %4, ptr noundef null) #27
  br label %"_ZZN8nanobind6detail11func_createILb0ELb1EZL30nanobind_init_test_holders_extRNS_7module_EE4$_37P3PetJ7PetKindEJLm0EEJNS_5scopeENS_4nameEEEEP7_objectOT1_PFT2_DpT3_ESt16integer_sequenceImJXspT4_EEEDpRKT5_ENKUlPvPSB_PhNS_9rv_policyEPNS0_12cleanup_listEE_clESP_SQ_SR_SS_SU_.exit"

"_ZZN8nanobind6detail11func_createILb0ELb1EZL30nanobind_init_test_holders_extRNS_7module_EE4$_37P3PetJ7PetKindEJLm0EEJNS_5scopeENS_4nameEEEEP7_objectOT1_PFT2_DpT3_ESt16integer_sequenceImJXspT4_EEEDpRKT5_ENKUlPvPSB_PhNS_9rv_policyEPNS0_12cleanup_listEE_clESP_SQ_SR_SS_SU_.exit": ; preds = %5, %_ZN8nanobind6detail9type_hookI3PetiE3getEPS2_.exit
  %.0.i = phi ptr [ %21, %_ZN8nanobind6detail9type_hookI3PetiE3getEPS2_.exit ], [ inttoptr (i64 1 to ptr), %5 ]
  ret ptr %.0.i
}